target datalayout = "e-m:e-p270:32:32-p271:32:32-p272:64:64-i64:64-i128:128-f80:128-n8:16:32:64-S128"
target triple = "x86_64-pc-linux-gnu"

@.str.2 = private unnamed_addr constant [5 x i8] c"_neg\00", align 1
@.str.3 = private unnamed_addr constant [5 x i8] c"_pos\00", align 1
@.str.4 = private unnamed_addr constant [22 x i8] c"    input  [%d:0] i,\0A\00", align 1
@.str.6 = private unnamed_addr constant [21 x i8] c"    output [%d:0] o\0A\00", align 1
@.str.7 = private unnamed_addr constant [4 x i8] c");\0A\00", align 1
@.str.11 = private unnamed_addr constant [12 x i8] c"endmodule\0A\0A\00", align 1
@.str.31 = private unnamed_addr constant [40 x i8] c"    wire [%d:0] n1 = {{%d{i[%d]}}, i};\0A\00", align 1
@.str.33 = private unnamed_addr constant [73 x i8] c"// %d-bit multiplier-accumulator by %d-bit constant %d generated by ABC\0A\00", align 1
@.str.34 = private unnamed_addr constant [21 x i8] c"module macc%03d%s (\0A\00", align 1
@.str.35 = private unnamed_addr constant [22 x i8] c"    input  [%d:0] c,\0A\00", align 1
@.str.36 = private unnamed_addr constant [19 x i8] c"    assign o = c;\0A\00", align 1
@.str.37 = private unnamed_addr constant [34 x i8] c"    wire [%d:0] s = %c%d[%d:%d];\0A\00", align 1
@.str.38 = private unnamed_addr constant [23 x i8] c"    assign o = s + c;\0A\00", align 1

; Function Attrs: inlinehint nounwind uwtable
define internal i32 @Abc_AbsInt(i32 noundef %0) #4 {
  %2 = alloca i32, align 4
  store i32 %0, ptr %2, align 4, !tbaa !8
  %3 = load i32, ptr %2, align 4, !tbaa !8
  %4 = icmp slt i32 %3, 0
  br i1 %4, label %5, label %8

5:                                                ; preds = %1
  %6 = load i32, ptr %2, align 4, !tbaa !8
  %7 = sub nsw i32 0, %6
  br label %10

8:                                                ; preds = %1
  %9 = load i32, ptr %2, align 4, !tbaa !8
  br label %10

10:                                               ; preds = %8, %5
  %11 = phi i32 [ %7, %5 ], [ %9, %8 ]
  ret i32 %11
}

; Function Attrs: nounwind uwtable
define void @Macc_ConstMultGenMacc(ptr noundef %0, ptr noundef %1, i32 noundef %2, i32 noundef %3, i32 noundef %4) #0 {
  %6 = alloca ptr, align 8
  %7 = alloca ptr, align 8
  %8 = alloca i32, align 4
  %9 = alloca i32, align 4
  %10 = alloca i32, align 4
  %11 = alloca i32, align 4
  %12 = alloca i32, align 4
  %13 = alloca i8, align 1
  store ptr %0, ptr %6, align 8, !tbaa !3
  store ptr %1, ptr %7, align 8, !tbaa !14
  store i32 %2, ptr %8, align 4, !tbaa !8
  store i32 %3, ptr %9, align 4, !tbaa !8
  store i32 %4, ptr %10, align 4, !tbaa !8
  call void @llvm.lifetime.start.p0(i64 4, ptr %11) #9
  %14 = load i32, ptr %10, align 4, !tbaa !8
  %15 = load i32, ptr %9, align 4, !tbaa !8
  %16 = add nsw i32 %14, %15
  store i32 %16, ptr %11, align 4, !tbaa !8
  call void @llvm.lifetime.start.p0(i64 4, ptr %12) #9
  %17 = load i32, ptr %9, align 4, !tbaa !8
  %18 = sub nsw i32 %17, 1
  %19 = shl i32 1, %18
  store i32 %19, ptr %12, align 4, !tbaa !8
  call void @llvm.lifetime.start.p0(i64 1, ptr %13) #9
  %20 = load i32, ptr %8, align 4, !tbaa !8
  %21 = icmp slt i32 %20, 0
  %22 = select i1 %21, i32 78, i32 110
  %23 = trunc i32 %22 to i8
  store i8 %23, ptr %13, align 1, !tbaa !36
  %24 = load ptr, ptr %6, align 8, !tbaa !3
  %25 = load i32, ptr %10, align 4, !tbaa !8
  %26 = load i32, ptr %9, align 4, !tbaa !8
  %27 = load i32, ptr %8, align 4, !tbaa !8
  %28 = call i32 (ptr, ptr, ...) @fprintf(ptr noundef %24, ptr noundef @.str.33, i32 noundef %25, i32 noundef %26, i32 noundef %27) #9
  %29 = load ptr, ptr %6, align 8, !tbaa !3
  %30 = load i32, ptr %8, align 4, !tbaa !8
  %31 = call i32 @Abc_AbsInt(i32 noundef %30)
  %32 = load i32, ptr %8, align 4, !tbaa !8
  %33 = icmp slt i32 %32, 0
  %34 = select i1 %33, ptr @.str.2, ptr @.str.3
  %35 = call i32 (ptr, ptr, ...) @fprintf(ptr noundef %29, ptr noundef @.str.34, i32 noundef %31, ptr noundef %34) #9
  %36 = load ptr, ptr %6, align 8, !tbaa !3
  %37 = load i32, ptr %10, align 4, !tbaa !8
  %38 = sub nsw i32 %37, 1
  %39 = call i32 (ptr, ptr, ...) @fprintf(ptr noundef %36, ptr noundef @.str.4, i32 noundef %38) #9
  %40 = load ptr, ptr %6, align 8, !tbaa !3
  %41 = load i32, ptr %10, align 4, !tbaa !8
  %42 = sub nsw i32 %41, 1
  %43 = call i32 (ptr, ptr, ...) @fprintf(ptr noundef %40, ptr noundef @.str.35, i32 noundef %42) #9
  %44 = load ptr, ptr %6, align 8, !tbaa !3
  %45 = load i32, ptr %10, align 4, !tbaa !8
  %46 = sub nsw i32 %45, 1
  %47 = call i32 (ptr, ptr, ...) @fprintf(ptr noundef %44, ptr noundef @.str.6, i32 noundef %46) #9
  %48 = load ptr, ptr %6, align 8, !tbaa !3
  %49 = call i32 (ptr, ptr, ...) @fprintf(ptr noundef %48, ptr noundef @.str.7) #9
  %50 = load i32, ptr %8, align 4, !tbaa !8
  %51 = icmp eq i32 %50, 0
  br i1 %51, label %52, label %55

52:                                               ; preds = %5
  %53 = load ptr, ptr %6, align 8, !tbaa !3
  %54 = call i32 (ptr, ptr, ...) @fprintf(ptr noundef %53, ptr noundef @.str.36) #9
  br label %81

55:                                               ; preds = %5
  %56 = load ptr, ptr %6, align 8, !tbaa !3
  %57 = load i32, ptr %11, align 4, !tbaa !8
  %58 = sub nsw i32 %57, 1
  %59 = load i32, ptr %9, align 4, !tbaa !8
  %60 = load i32, ptr %10, align 4, !tbaa !8
  %61 = sub nsw i32 %60, 1
  %62 = call i32 (ptr, ptr, ...) @fprintf(ptr noundef %56, ptr noundef @.str.31, i32 noundef %58, i32 noundef %59, i32 noundef %61) #9
  %63 = load ptr, ptr %6, align 8, !tbaa !3
  %64 = load ptr, ptr %7, align 8, !tbaa !14
  %65 = load i32, ptr %8, align 4, !tbaa !8
  %66 = load i32, ptr %9, align 4, !tbaa !8
  %67 = load i32, ptr %10, align 4, !tbaa !8
  call void @Macc_ConstMultGenOne_rec(ptr noundef %63, ptr noundef %64, i32 noundef %65, i32 noundef %66, i32 noundef %67)
  %68 = load ptr, ptr %6, align 8, !tbaa !3
  %69 = load i32, ptr %10, align 4, !tbaa !8
  %70 = sub nsw i32 %69, 1
  %71 = load i8, ptr %13, align 1, !tbaa !36
  %72 = sext i8 %71 to i32
  %73 = load i32, ptr %8, align 4, !tbaa !8
  %74 = call i32 @Abc_AbsInt(i32 noundef %73)
  %75 = load i32, ptr %11, align 4, !tbaa !8
  %76 = sub nsw i32 %75, 1
  %77 = load i32, ptr %9, align 4, !tbaa !8
  %78 = call i32 (ptr, ptr, ...) @fprintf(ptr noundef %68, ptr noundef @.str.37, i32 noundef %70, i32 noundef %72, i32 noundef %74, i32 noundef %76, i32 noundef %77) #9
  %79 = load ptr, ptr %6, align 8, !tbaa !3
  %80 = call i32 (ptr, ptr, ...) @fprintf(ptr noundef %79, ptr noundef @.str.38) #9
  br label %81

81:                                               ; preds = %55, %52
  %82 = load ptr, ptr %6, align 8, !tbaa !3
  %83 = call i32 (ptr, ptr, ...) @fprintf(ptr noundef %82, ptr noundef @.str.11) #9
  call void @llvm.lifetime.end.p0(i64 1, ptr %13) #9
  call void @llvm.lifetime.end.p0(i64 4, ptr %12) #9
  call void @llvm.lifetime.end.p0(i64 4, ptr %11) #9
  ret void
}